target datalayout = "e-m:e-p270:32:32-p271:32:32-p272:64:64-i64:64-i128:128-f80:128-n8:16:32:64-S128"
target triple = "x86_64-pc-linux-gnu"

%struct.evp_md_ctx_st = type { ptr, ptr, ptr, i64, ptr, ptr, ptr, ptr, ptr }
%struct.evp_md_st = type { i32, i32, i32, i64, i32, ptr, ptr, ptr, ptr, ptr, i32, i32, ptr, i32, ptr, ptr, ptr, %struct.CRYPTO_REF_COUNT, ptr, ptr, ptr, ptr, ptr, ptr, ptr, ptr, ptr, ptr, ptr, ptr, ptr, ptr, ptr }
%struct.CRYPTO_REF_COUNT = type { i32 }

@.str = private unnamed_addr constant [31 x i8] c"../openssl/crypto/evp/digest.c\00", align 1
@__func__.EVP_DigestFinal_ex = private unnamed_addr constant [19 x i8] c"EVP_DigestFinal_ex\00", align 1
@.str.1 = private unnamed_addr constant [44 x i8] c"assertion failed: mdsize <= EVP_MAX_MD_SIZE\00", align 1

; Function Attrs: nounwind uwtable
define i32 @EVP_DigestFinal_ex(ptr noundef %0, ptr noundef %1, ptr noundef %2) #0 {
  %4 = alloca i32, align 4
  %5 = alloca ptr, align 8
  %6 = alloca ptr, align 8
  %7 = alloca ptr, align 8
  %8 = alloca i32, align 4
  %9 = alloca i32, align 4
  %10 = alloca i64, align 8
  %11 = alloca i64, align 8
  %12 = alloca i32, align 4
  store ptr %0, ptr %5, align 8, !tbaa !3
  store ptr %1, ptr %6, align 8, !tbaa !37
  store ptr %2, ptr %7, align 8, !tbaa !64
  call void @llvm.lifetime.start.p0(i64 4, ptr %8) #8
  call void @llvm.lifetime.start.p0(i64 4, ptr %9) #8
  call void @llvm.lifetime.start.p0(i64 8, ptr %10) #8
  store i64 0, ptr %10, align 8, !tbaa !62
  call void @llvm.lifetime.start.p0(i64 8, ptr %11) #8
  store i64 0, ptr %11, align 8, !tbaa !62
  %13 = load ptr, ptr %5, align 8, !tbaa !3
  %14 = getelementptr inbounds nuw %struct.evp_md_ctx_st, ptr %13, i32 0, i32 1
  %15 = load ptr, ptr %14, align 8, !tbaa !16
  %16 = icmp eq ptr %15, null
  br i1 %16, label %17, label %18

17:                                               ; preds = %3
  store i32 0, ptr %4, align 4
  store i32 1, ptr %12, align 4
  br label %126

18:                                               ; preds = %3
  %19 = load ptr, ptr %5, align 8, !tbaa !3
  %20 = call i32 @EVP_MD_CTX_get_size_ex(ptr noundef %19)
  store i32 %20, ptr %9, align 4, !tbaa !8
  %21 = load i32, ptr %9, align 4, !tbaa !8
  %22 = icmp slt i32 %21, 0
  br i1 %22, label %23, label %24

23:                                               ; preds = %18
  store i32 0, ptr %4, align 4
  store i32 1, ptr %12, align 4
  br label %126

24:                                               ; preds = %18
  %25 = load i32, ptr %9, align 4, !tbaa !8
  %26 = sext i32 %25 to i64
  store i64 %26, ptr %11, align 8, !tbaa !62
  %27 = load ptr, ptr %5, align 8, !tbaa !3
  %28 = getelementptr inbounds nuw %struct.evp_md_ctx_st, ptr %27, i32 0, i32 1
  %29 = load ptr, ptr %28, align 8, !tbaa !16
  %30 = getelementptr inbounds nuw %struct.evp_md_st, ptr %29, i32 0, i32 16
  %31 = load ptr, ptr %30, align 8, !tbaa !55
  %32 = icmp eq ptr %31, null
  br i1 %32, label %33, label %34

33:                                               ; preds = %24
  br label %78

34:                                               ; preds = %24
  %35 = load ptr, ptr %5, align 8, !tbaa !3
  %36 = getelementptr inbounds nuw %struct.evp_md_ctx_st, ptr %35, i32 0, i32 1
  %37 = load ptr, ptr %36, align 8, !tbaa !16
  %38 = getelementptr inbounds nuw %struct.evp_md_st, ptr %37, i32 0, i32 21
  %39 = load ptr, ptr %38, align 8, !tbaa !65
  %40 = icmp eq ptr %39, null
  br i1 %40, label %41, label %42

41:                                               ; preds = %34
  call void @ERR_new()
  call void @ERR_set_debug(ptr noundef @.str, i32 noundef 459, ptr noundef @__func__.EVP_DigestFinal_ex)
  call void (i32, i32, ptr, ...) @ERR_set_error(i32 noundef 6, i32 noundef 188, ptr noundef null)
  store i32 0, ptr %4, align 4
  store i32 1, ptr %12, align 4
  br label %126

42:                                               ; preds = %34
  %43 = load ptr, ptr %5, align 8, !tbaa !3
  %44 = getelementptr inbounds nuw %struct.evp_md_ctx_st, ptr %43, i32 0, i32 3
  %45 = load i64, ptr %44, align 8, !tbaa !54
  %46 = and i64 %45, 2048
  %47 = icmp ne i64 %46, 0
  br i1 %47, label %48, label %49

48:                                               ; preds = %42
  call void @ERR_new()
  call void @ERR_set_debug(ptr noundef @.str, i32 noundef 464, ptr noundef @__func__.EVP_DigestFinal_ex)
  call void (i32, i32, ptr, ...) @ERR_set_error(i32 noundef 6, i32 noundef 188, ptr noundef null)
  store i32 0, ptr %4, align 4
  store i32 1, ptr %12, align 4
  br label %126

49:                                               ; preds = %42
  %50 = load ptr, ptr %5, align 8, !tbaa !3
  %51 = getelementptr inbounds nuw %struct.evp_md_ctx_st, ptr %50, i32 0, i32 1
  %52 = load ptr, ptr %51, align 8, !tbaa !16
  %53 = getelementptr inbounds nuw %struct.evp_md_st, ptr %52, i32 0, i32 21
  %54 = load ptr, ptr %53, align 8, !tbaa !65
  %55 = load ptr, ptr %5, align 8, !tbaa !3
  %56 = getelementptr inbounds nuw %struct.evp_md_ctx_st, ptr %55, i32 0, i32 7
  %57 = load ptr, ptr %56, align 8, !tbaa !10
  %58 = load ptr, ptr %6, align 8, !tbaa !37
  %59 = load i64, ptr %11, align 8, !tbaa !62
  %60 = call i32 %54(ptr noundef %57, ptr noundef %58, ptr noundef %10, i64 noundef %59)
  store i32 %60, ptr %8, align 4, !tbaa !8
  %61 = load ptr, ptr %5, align 8, !tbaa !3
  %62 = getelementptr inbounds nuw %struct.evp_md_ctx_st, ptr %61, i32 0, i32 3
  %63 = load i64, ptr %62, align 8, !tbaa !54
  %64 = or i64 %63, 2048
  store i64 %64, ptr %62, align 8, !tbaa !54
  %65 = load ptr, ptr %7, align 8, !tbaa !64
  %66 = icmp ne ptr %65, null
  br i1 %66, label %67, label %76

67:                                               ; preds = %49
  %68 = load i64, ptr %10, align 8, !tbaa !62
  %69 = icmp ule i64 %68, 4294967295
  br i1 %69, label %70, label %74

70:                                               ; preds = %67
  %71 = load i64, ptr %10, align 8, !tbaa !62
  %72 = trunc i64 %71 to i32
  %73 = load ptr, ptr %7, align 8, !tbaa !64
  store i32 %72, ptr %73, align 4, !tbaa !8
  br label %75

74:                                               ; preds = %67
  call void @ERR_new()
  call void @ERR_set_debug(ptr noundef @.str, i32 noundef 476, ptr noundef @__func__.EVP_DigestFinal_ex)
  call void (i32, i32, ptr, ...) @ERR_set_error(i32 noundef 6, i32 noundef 188, ptr noundef null)
  store i32 0, ptr %8, align 4, !tbaa !8
  br label %75

75:                                               ; preds = %74, %70
  br label %76

76:                                               ; preds = %75, %49
  %77 = load i32, ptr %8, align 4, !tbaa !8
  store i32 %77, ptr %4, align 4
  store i32 1, ptr %12, align 4
  br label %126

78:                                               ; preds = %33
  %79 = load i64, ptr %11, align 8, !tbaa !62
  %80 = icmp ule i64 %79, 64
  br i1 %80, label %81, label %82

81:                                               ; preds = %78
  br label %84

82:                                               ; preds = %78
  call void @OPENSSL_die(ptr noundef @.str.1, ptr noundef @.str, i32 noundef 485) #9
  unreachable

83:                                               ; No predecessors!
  br label %84

84:                                               ; preds = %83, %81
  %85 = load ptr, ptr %5, align 8, !tbaa !3
  %86 = getelementptr inbounds nuw %struct.evp_md_ctx_st, ptr %85, i32 0, i32 1
  %87 = load ptr, ptr %86, align 8, !tbaa !16
  %88 = getelementptr inbounds nuw %struct.evp_md_st, ptr %87, i32 0, i32 7
  %89 = load ptr, ptr %88, align 8, !tbaa !66
  %90 = load ptr, ptr %5, align 8, !tbaa !3
  %91 = load ptr, ptr %6, align 8, !tbaa !37
  %92 = call i32 %89(ptr noundef %90, ptr noundef %91)
  store i32 %92, ptr %8, align 4, !tbaa !8
  %93 = load ptr, ptr %7, align 8, !tbaa !64
  %94 = icmp ne ptr %93, null
  br i1 %94, label %95, label %99

95:                                               ; preds = %84
  %96 = load i64, ptr %11, align 8, !tbaa !62
  %97 = trunc i64 %96 to i32
  %98 = load ptr, ptr %7, align 8, !tbaa !64
  store i32 %97, ptr %98, align 4, !tbaa !8
  br label %99

99:                                               ; preds = %95, %84
  %100 = load ptr, ptr %5, align 8, !tbaa !3
  %101 = getelementptr inbounds nuw %struct.evp_md_ctx_st, ptr %100, i32 0, i32 1
  %102 = load ptr, ptr %101, align 8, !tbaa !16
  %103 = getelementptr inbounds nuw %struct.evp_md_st, ptr %102, i32 0, i32 9
  %104 = load ptr, ptr %103, align 8, !tbaa !25
  %105 = icmp ne ptr %104, null
  br i1 %105, label %106, label %115

106:                                              ; preds = %99
  %107 = load ptr, ptr %5, align 8, !tbaa !3
  %108 = getelementptr inbounds nuw %struct.evp_md_ctx_st, ptr %107, i32 0, i32 1
  %109 = load ptr, ptr %108, align 8, !tbaa !16
  %110 = getelementptr inbounds nuw %struct.evp_md_st, ptr %109, i32 0, i32 9
  %111 = load ptr, ptr %110, align 8, !tbaa !25
  %112 = load ptr, ptr %5, align 8, !tbaa !3
  %113 = call i32 %111(ptr noundef %112)
  %114 = load ptr, ptr %5, align 8, !tbaa !3
  call void @EVP_MD_CTX_set_flags(ptr noundef %114, i32 noundef 2)
  br label %115

115:                                              ; preds = %106, %99
  %116 = load ptr, ptr %5, align 8, !tbaa !3
  %117 = getelementptr inbounds nuw %struct.evp_md_ctx_st, ptr %116, i32 0, i32 4
  %118 = load ptr, ptr %117, align 8, !tbaa !26
  %119 = load ptr, ptr %5, align 8, !tbaa !3
  %120 = getelementptr inbounds nuw %struct.evp_md_ctx_st, ptr %119, i32 0, i32 1
  %121 = load ptr, ptr %120, align 8, !tbaa !16
  %122 = getelementptr inbounds nuw %struct.evp_md_st, ptr %121, i32 0, i32 11
  %123 = load i32, ptr %122, align 4, !tbaa !27
  %124 = sext i32 %123 to i64
  call void @OPENSSL_cleanse(ptr noundef %118, i64 noundef %124)
  %125 = load i32, ptr %8, align 4, !tbaa !8
  store i32 %125, ptr %4, align 4
  store i32 1, ptr %12, align 4
  br label %126

126:                                              ; preds = %115, %76, %48, %41, %23, %17
  call void @llvm.lifetime.end.p0(i64 8, ptr %11) #8
  call void @llvm.lifetime.end.p0(i64 8, ptr %10) #8
  call void @llvm.lifetime.end.p0(i64 4, ptr %9) #8
  call void @llvm.lifetime.end.p0(i64 4, ptr %8) #8
  %127 = load i32, ptr %4, align 4
  ret i32 %127
}