; Function Attrs: nounwind uwtable
define i32 @EVP_DigestFinal_ex(ptr noundef %0, ptr noundef %1, ptr noundef writeonly captures(address_is_null) %2) local_unnamed_addr #0 {
  %4 = alloca i64, align 8
  call void @llvm.lifetime.start.p0(i64 8, ptr nonnull %4) #8
  store i64 0, ptr %4, align 8, !tbaa !50
  %5 = getelementptr inbounds nuw i8, ptr %0, i64 8
  %6 = load ptr, ptr %5, align 8, !tbaa !12
  %7 = icmp eq ptr %6, null
  br i1 %7, label %60, label %8

8:                                                ; preds = %3
  %9 = tail call i32 @EVP_MD_CTX_get_size_ex(ptr noundef nonnull %0) #8
  %10 = icmp slt i32 %9, 0
  br i1 %10, label %60, label %11

11:                                               ; preds = %8
  %12 = zext nneg i32 %9 to i64
  %13 = load ptr, ptr %5, align 8, !tbaa !12
  %14 = getelementptr inbounds nuw i8, ptr %13, i64 112
  %15 = load ptr, ptr %14, align 8, !tbaa !43
  %16 = icmp eq ptr %15, null
  br i1 %16, label %39, label %17

17:                                               ; preds = %11
  %18 = getelementptr inbounds nuw i8, ptr %13, i64 152
  %19 = load ptr, ptr %18, align 8, !tbaa !51
  %20 = icmp eq ptr %19, null
  br i1 %20, label %21, label %22

21:                                               ; preds = %17
  tail call void @ERR_new() #8
  tail call void @ERR_set_debug(ptr noundef nonnull @.str, i32 noundef 459, ptr noundef nonnull @__func__.EVP_DigestFinal_ex) #8
  tail call void (i32, i32, ptr, ...) @ERR_set_error(i32 noundef 6, i32 noundef 188, ptr noundef null) #8
  br label %60

22:                                               ; preds = %17
  %23 = getelementptr inbounds nuw i8, ptr %0, i64 24
  %24 = load i64, ptr %23, align 8, !tbaa !42
  %25 = and i64 %24, 2048
  %.not = icmp eq i64 %25, 0
  br i1 %.not, label %27, label %26

26:                                               ; preds = %22
  tail call void @ERR_new() #8
  tail call void @ERR_set_debug(ptr noundef nonnull @.str, i32 noundef 464, ptr noundef nonnull @__func__.EVP_DigestFinal_ex) #8
  tail call void (i32, i32, ptr, ...) @ERR_set_error(i32 noundef 6, i32 noundef 188, ptr noundef null) #8
  br label %60

27:                                               ; preds = %22
  %28 = getelementptr inbounds nuw i8, ptr %0, i64 56
  %29 = load ptr, ptr %28, align 8, !tbaa !3
  %30 = call i32 %19(ptr noundef %29, ptr noundef %1, ptr noundef nonnull %4, i64 noundef %12) #8
  %31 = load i64, ptr %23, align 8, !tbaa !42
  %32 = or i64 %31, 2048
  store i64 %32, ptr %23, align 8, !tbaa !42
  %.not35 = icmp eq ptr %2, null
  br i1 %.not35, label %60, label %33

33:                                               ; preds = %27
  %34 = load i64, ptr %4, align 8, !tbaa !50
  %35 = icmp ult i64 %34, 4294967296
  br i1 %35, label %36, label %38

36:                                               ; preds = %33
  %37 = trunc nuw i64 %34 to i32
  store i32 %37, ptr %2, align 4, !tbaa !52
  br label %60

38:                                               ; preds = %33
  call void @ERR_new() #8
  call void @ERR_set_debug(ptr noundef nonnull @.str, i32 noundef 476, ptr noundef nonnull @__func__.EVP_DigestFinal_ex) #8
  call void (i32, i32, ptr, ...) @ERR_set_error(i32 noundef 6, i32 noundef 188, ptr noundef null) #8
  br label %60

39:                                               ; preds = %11
  %40 = icmp samesign ult i32 %9, 65
  br i1 %40, label %42, label %41

41:                                               ; preds = %39
  tail call void @OPENSSL_die(ptr noundef nonnull @.str.1, ptr noundef nonnull @.str, i32 noundef 485) #9
  unreachable

42:                                               ; preds = %39
  %43 = getelementptr inbounds nuw i8, ptr %13, i64 48
  %44 = load ptr, ptr %43, align 8, !tbaa !53
  %45 = tail call i32 %44(ptr noundef nonnull %0, ptr noundef %1) #8
  %.not36 = icmp eq ptr %2, null
  br i1 %.not36, label %47, label %46

46:                                               ; preds = %42
  store i32 %9, ptr %2, align 4, !tbaa !52
  br label %47

47:                                               ; preds = %46, %42
  %48 = load ptr, ptr %5, align 8, !tbaa !12
  %49 = getelementptr inbounds nuw i8, ptr %48, i64 64
  %50 = load ptr, ptr %49, align 8, !tbaa !19
  %.not37 = icmp eq ptr %50, null
  br i1 %.not37, label %53, label %51

51:                                               ; preds = %47
  %52 = tail call i32 %50(ptr noundef nonnull %0) #8
  tail call void @EVP_MD_CTX_set_flags(ptr noundef nonnull %0, i32 noundef 2) #8
  %.pre = load ptr, ptr %5, align 8, !tbaa !12
  br label %53

53:                                               ; preds = %51, %47
  %54 = phi ptr [ %.pre, %51 ], [ %48, %47 ]
  %55 = getelementptr inbounds nuw i8, ptr %0, i64 32
  %56 = load ptr, ptr %55, align 8, !tbaa !20
  %57 = getelementptr inbounds nuw i8, ptr %54, i64 76
  %58 = load i32, ptr %57, align 4, !tbaa !21
  %59 = sext i32 %58 to i64
  tail call void @OPENSSL_cleanse(ptr noundef %56, i64 noundef %59) #8
  br label %60

60:                                               ; preds = %27, %38, %36, %8, %3, %53, %26, %21
  %.0 = phi i32 [ %45, %53 ], [ 0, %21 ], [ 0, %26 ], [ 0, %3 ], [ 0, %8 ], [ %30, %36 ], [ 0, %38 ], [ %30, %27 ]
  call void @llvm.lifetime.end.p0(i64 8, ptr nonnull %4) #8
  ret i32 %.0
}